; Function Attrs: mustprogress nounwind uwtable
define hidden noundef ptr @_ZN14ShenandoahHeap8verifierEv(ptr nocapture noundef nonnull readonly align 8 dereferenceable(2657) %0) local_unnamed_addr #1 align 2 {
  %2 = load i8, ptr @ShenandoahVerify, align 1
  %3 = trunc i8 %2 to i1
  br i1 %3, label %6, label %4

4:                                                ; preds = %1
  %5 = load ptr, ptr @g_assert_poison, align 8
  store i8 88, ptr %5, align 1
  tail call void (ptr, i32, ptr, ptr, ...) @_Z15report_vm_errorPKciS0_S0_z(ptr noundef nonnull @.str.8, i32 noundef 2174, ptr noundef nonnull @.str.75, ptr noundef nonnull @.str.76) #27
  unreachable

6:                                                ; preds = %1
  %7 = getelementptr inbounds i8, ptr %0, i64 1672
  %8 = load ptr, ptr %7, align 8
  ret ptr %8
}